; Function Attrs: mustprogress nounwind uwtable
define void @_ZN9grpc_core22XdsCertificateProvider23ClusterCertificateStateD2Ev(ptr noundef nonnull align 8 dereferenceable(113) %this) unnamed_addr #3 align 2 personality ptr @__gxx_personality_v0 {
entry:
  %root_cert_watcher_ = getelementptr inbounds i8, ptr %this, i64 96
  %0 = load ptr, ptr %root_cert_watcher_, align 8
  %cmp.not = icmp eq ptr %0, null
  br i1 %cmp.not, label %if.end, label %if.then

if.then:                                          ; preds = %entry
  %root_cert_distributor_ = getelementptr inbounds i8, ptr %this, i64 80
  %1 = load ptr, ptr %root_cert_distributor_, align 8
  invoke void @_ZN32grpc_tls_certificate_distributor26CancelTlsCertificatesWatchEPNS_31TlsCertificatesWatcherInterfaceE(ptr noundef nonnull align 8 dereferenceable(160) %1, ptr noundef nonnull %0)
          to label %if.end unwind label %terminate.lpad

if.end:                                           ; preds = %if.then, %entry
  %identity_cert_watcher_ = getelementptr inbounds i8, ptr %this, i64 104
  %2 = load ptr, ptr %identity_cert_watcher_, align 8
  %cmp4.not = icmp eq ptr %2, null
  br i1 %cmp4.not, label %if.end10, label %if.then5

if.then5:                                         ; preds = %if.end
  %identity_cert_distributor_ = getelementptr inbounds i8, ptr %this, i64 88
  %3 = load ptr, ptr %identity_cert_distributor_, align 8
  invoke void @_ZN32grpc_tls_certificate_distributor26CancelTlsCertificatesWatchEPNS_31TlsCertificatesWatcherInterfaceE(ptr noundef nonnull align 8 dereferenceable(160) %3, ptr noundef nonnull %2)
          to label %if.end10 unwind label %terminate.lpad

if.end10:                                         ; preds = %if.then5, %if.end
  %identity_cert_distributor_11 = getelementptr inbounds i8, ptr %this, i64 88
  %4 = load ptr, ptr %identity_cert_distributor_11, align 8
  %cmp.not.i = icmp eq ptr %4, null
  br i1 %cmp.not.i, label %_ZN9grpc_core13RefCountedPtrI32grpc_tls_certificate_distributorED2Ev.exit, label %if.then.i

if.then.i:                                        ; preds = %if.end10
  %refs_.i.i = getelementptr inbounds i8, ptr %4, i64 8
  %5 = atomicrmw sub ptr %refs_.i.i, i64 1 acq_rel, align 8
  %cmp.i.i.i = icmp eq i64 %5, 1
  br i1 %cmp.i.i.i, label %if.then.i.i, label %_ZN9grpc_core13RefCountedPtrI32grpc_tls_certificate_distributorED2Ev.exit

if.then.i.i:                                      ; preds = %if.then.i
  %vtable.i.i.i = load ptr, ptr %4, align 8
  %vfn.i.i.i = getelementptr inbounds i8, ptr %vtable.i.i.i, i64 8
  %6 = load ptr, ptr %vfn.i.i.i, align 8
  tail call void %6(ptr noundef nonnull align 8 dereferenceable(160) %4) #18
  br label %_ZN9grpc_core13RefCountedPtrI32grpc_tls_certificate_distributorED2Ev.exit

_ZN9grpc_core13RefCountedPtrI32grpc_tls_certificate_distributorED2Ev.exit: ; preds = %if.end10, %if.then.i, %if.then.i.i
  %root_cert_distributor_12 = getelementptr inbounds i8, ptr %this, i64 80
  %7 = load ptr, ptr %root_cert_distributor_12, align 8
  %cmp.not.i1 = icmp eq ptr %7, null
  br i1 %cmp.not.i1, label %_ZN9grpc_core13RefCountedPtrI32grpc_tls_certificate_distributorED2Ev.exit8, label %if.then.i2

if.then.i2:                                       ; preds = %_ZN9grpc_core13RefCountedPtrI32grpc_tls_certificate_distributorED2Ev.exit
  %refs_.i.i3 = getelementptr inbounds i8, ptr %7, i64 8
  %8 = atomicrmw sub ptr %refs_.i.i3, i64 1 acq_rel, align 8
  %cmp.i.i.i4 = icmp eq i64 %8, 1
  br i1 %cmp.i.i.i4, label %if.then.i.i5, label %_ZN9grpc_core13RefCountedPtrI32grpc_tls_certificate_distributorED2Ev.exit8

if.then.i.i5:                                     ; preds = %if.then.i2
  %vtable.i.i.i6 = load ptr, ptr %7, align 8
  %vfn.i.i.i7 = getelementptr inbounds i8, ptr %vtable.i.i.i6, i64 8
  %9 = load ptr, ptr %vfn.i.i.i7, align 8
  tail call void %9(ptr noundef nonnull align 8 dereferenceable(160) %7) #18
  br label %_ZN9grpc_core13RefCountedPtrI32grpc_tls_certificate_distributorED2Ev.exit8

_ZN9grpc_core13RefCountedPtrI32grpc_tls_certificate_distributorED2Ev.exit8: ; preds = %_ZN9grpc_core13RefCountedPtrI32grpc_tls_certificate_distributorED2Ev.exit, %if.then.i2, %if.then.i.i5
  %identity_cert_name_ = getelementptr inbounds i8, ptr %this, i64 48
  tail call void @_ZNSt7__cxx1112basic_stringIcSt11char_traitsIcESaIcEED1Ev(ptr noundef nonnull align 8 dereferenceable(32) %identity_cert_name_) #18
  %root_cert_name_ = getelementptr inbounds i8, ptr %this, i64 16
  tail call void @_ZNSt7__cxx1112basic_stringIcSt11char_traitsIcESaIcEED1Ev(ptr noundef nonnull align 8 dereferenceable(32) %root_cert_name_) #18
  ret void

terminate.lpad:                                   ; preds = %if.then5, %if.then
  %10 = landingpad { ptr, i32 }
          catch ptr null
  %11 = extractvalue { ptr, i32 } %10, 0
  tail call void @__clang_call_terminate(ptr %11) #19
  unreachable
}